target datalayout = "e-m:e-p270:32:32-p271:32:32-p272:64:64-i64:64-i128:128-f80:128-n8:16:32:64-S128"
target triple = "x86_64-pc-linux-gnu"

%"class.google::protobuf::io::ZeroCopyInputStream" = type { ptr }
%"class.google::protobuf::internal::LogMessage" = type { i32, ptr, i32, %"class.std::__cxx11::basic_string" }
%"class.std::__cxx11::basic_string" = type { %"struct.std::__cxx11::basic_string<char>::_Alloc_hider", i64, %union.anon }
%"struct.std::__cxx11::basic_string<char>::_Alloc_hider" = type { ptr }
%union.anon = type { i64, [8 x i8] }
%"class.google::protobuf::internal::LogFinisher" = type { i8 }
%"class.google::protobuf::io::CopyingInputStreamAdaptor" = type <{ %"class.google::protobuf::io::ZeroCopyInputStream", ptr, i8, i8, [6 x i8], i64, %"class.std::unique_ptr", i32, i32, i32, [4 x i8] }>
%"class.std::unique_ptr" = type { %"struct.std::__uniq_ptr_data" }
%"struct.std::__uniq_ptr_data" = type { %"class.std::__uniq_ptr_impl" }
%"class.std::__uniq_ptr_impl" = type { %"class.std::tuple" }
%"class.std::tuple" = type { %"struct.std::_Tuple_impl" }
%"struct.std::_Tuple_impl" = type { %"struct.std::_Head_base.1" }
%"struct.std::_Head_base.1" = type { ptr }

@.str = private unnamed_addr constant [162 x i8] c"generated/home/dtcxzyw/WorkSpace/Projects/compilers/llvm-opt-benchmark/bench/opencv/opencv/3rdparty/protobuf/src/google/protobuf/io/zero_copy_stream_impl_lite.cc\00", align 1
@.str.4 = private unnamed_addr constant [31 x i8] c"CHECK failed: (count) >= (0): \00", align 1

; Function Attrs: mustprogress uwtable
define hidden noundef zeroext i1 @_ZN6google8protobuf2io25CopyingInputStreamAdaptor4SkipEi(ptr noundef nonnull align 8 dereferenceable(52) %0, i32 noundef %1) unnamed_addr #4 align 2 personality ptr @__gxx_personality_v0 {
  %3 = alloca i1, align 1
  %4 = alloca ptr, align 8
  %5 = alloca i32, align 4
  %6 = alloca %"class.google::protobuf::internal::LogMessage", align 8
  %7 = alloca i1, align 1
  %8 = alloca i1, align 1
  %9 = alloca ptr, align 8
  %10 = alloca i32, align 4
  %11 = alloca %"class.google::protobuf::internal::LogFinisher", align 1
  %12 = alloca i32, align 4
  store ptr %0, ptr %4, align 8, !tbaa !56
  store i32 %1, ptr %5, align 4, !tbaa !9
  %13 = load ptr, ptr %4, align 8
  %14 = load i32, ptr %5, align 4, !tbaa !9
  %15 = icmp sge i32 %14, 0
  store i1 false, ptr %7, align 1
  store i1 false, ptr %8, align 1
  call void @llvm.lifetime.start.p0(i64 1, ptr %11) #3
  br i1 %15, label %16, label %17

16:                                               ; preds = %2
  br label %21

17:                                               ; preds = %2
  call void @llvm.lifetime.start.p0(i64 56, ptr %6) #3
  store i1 true, ptr %7, align 1
  call void @_ZN6google8protobuf8internal10LogMessageC1ENS0_8LogLevelEPKci(ptr noundef nonnull align 8 dereferenceable(56) %6, i32 noundef 3, ptr noundef @.str, i32 noundef 259)
  store i1 true, ptr %8, align 1
  %18 = invoke noundef nonnull align 8 dereferenceable(56) ptr @_ZN6google8protobuf8internal10LogMessagelsEPKc(ptr noundef nonnull align 8 dereferenceable(56) %6, ptr noundef @.str.4)
          to label %19 unwind label %32

19:                                               ; preds = %17
  invoke void @_ZN6google8protobuf8internal11LogFinisheraSERNS1_10LogMessageE(ptr noundef nonnull align 1 dereferenceable(1) %11, ptr noundef nonnull align 8 dereferenceable(56) %18)
          to label %20 unwind label %36

20:                                               ; preds = %19
  br label %21

21:                                               ; preds = %20, %16
  call void @llvm.lifetime.end.p0(i64 1, ptr %11) #3
  %22 = load i1, ptr %8, align 1
  br i1 %22, label %23, label %24

23:                                               ; preds = %21
  call void @_ZN6google8protobuf8internal10LogMessageD1Ev(ptr noundef nonnull align 8 dereferenceable(56) %6) #3
  br label %24

24:                                               ; preds = %23, %21
  %25 = load i1, ptr %7, align 1
  br i1 %25, label %26, label %27

26:                                               ; preds = %24
  call void @llvm.lifetime.end.p0(i64 56, ptr %6) #3
  br label %27

27:                                               ; preds = %26, %24
  %28 = getelementptr inbounds nuw %"class.google::protobuf::io::CopyingInputStreamAdaptor", ptr %13, i32 0, i32 3
  %29 = load i8, ptr %28, align 1, !tbaa !68, !range !75, !noundef !76
  %30 = trunc i8 %29 to i1
  br i1 %30, label %31, label %47

31:                                               ; preds = %27
  store i1 false, ptr %3, align 1
  br label %78

32:                                               ; preds = %17
  %33 = landingpad { ptr, i32 }
          cleanup
  %34 = extractvalue { ptr, i32 } %33, 0
  store ptr %34, ptr %9, align 8
  %35 = extractvalue { ptr, i32 } %33, 1
  store i32 %35, ptr %10, align 4
  br label %40

36:                                               ; preds = %19
  %37 = landingpad { ptr, i32 }
          cleanup
  %38 = extractvalue { ptr, i32 } %37, 0
  store ptr %38, ptr %9, align 8
  %39 = extractvalue { ptr, i32 } %37, 1
  store i32 %39, ptr %10, align 4
  call void @llvm.lifetime.end.p0(i64 1, ptr %11) #3
  br label %40

40:                                               ; preds = %36, %32
  %41 = load i1, ptr %8, align 1
  br i1 %41, label %42, label %43

42:                                               ; preds = %40
  call void @_ZN6google8protobuf8internal10LogMessageD1Ev(ptr noundef nonnull align 8 dereferenceable(56) %6) #3
  br label %43

43:                                               ; preds = %42, %40
  %44 = load i1, ptr %7, align 1
  br i1 %44, label %45, label %46

45:                                               ; preds = %43
  call void @llvm.lifetime.end.p0(i64 56, ptr %6) #3
  br label %46

46:                                               ; preds = %45, %43
  br label %80

47:                                               ; preds = %27
  %48 = getelementptr inbounds nuw %"class.google::protobuf::io::CopyingInputStreamAdaptor", ptr %13, i32 0, i32 9
  %49 = load i32, ptr %48, align 8, !tbaa !72
  %50 = load i32, ptr %5, align 4, !tbaa !9
  %51 = icmp sge i32 %49, %50
  br i1 %51, label %52, label %57

52:                                               ; preds = %47
  %53 = load i32, ptr %5, align 4, !tbaa !9
  %54 = getelementptr inbounds nuw %"class.google::protobuf::io::CopyingInputStreamAdaptor", ptr %13, i32 0, i32 9
  %55 = load i32, ptr %54, align 8, !tbaa !72
  %56 = sub nsw i32 %55, %53
  store i32 %56, ptr %54, align 8, !tbaa !72
  store i1 true, ptr %3, align 1
  br label %78

57:                                               ; preds = %47
  %58 = getelementptr inbounds nuw %"class.google::protobuf::io::CopyingInputStreamAdaptor", ptr %13, i32 0, i32 9
  %59 = load i32, ptr %58, align 8, !tbaa !72
  %60 = load i32, ptr %5, align 4, !tbaa !9
  %61 = sub nsw i32 %60, %59
  store i32 %61, ptr %5, align 4, !tbaa !9
  %62 = getelementptr inbounds nuw %"class.google::protobuf::io::CopyingInputStreamAdaptor", ptr %13, i32 0, i32 9
  store i32 0, ptr %62, align 8, !tbaa !72
  call void @llvm.lifetime.start.p0(i64 4, ptr %12) #3
  %63 = getelementptr inbounds nuw %"class.google::protobuf::io::CopyingInputStreamAdaptor", ptr %13, i32 0, i32 1
  %64 = load ptr, ptr %63, align 8, !tbaa !58
  %65 = load i32, ptr %5, align 4, !tbaa !9
  %66 = load ptr, ptr %64, align 8, !tbaa !11
  %67 = getelementptr inbounds ptr, ptr %66, i64 3
  %68 = load ptr, ptr %67, align 8
  %69 = call noundef i32 %68(ptr noundef nonnull align 8 dereferenceable(8) %64, i32 noundef %65)
  store i32 %69, ptr %12, align 4, !tbaa !9
  %70 = load i32, ptr %12, align 4, !tbaa !9
  %71 = sext i32 %70 to i64
  %72 = getelementptr inbounds nuw %"class.google::protobuf::io::CopyingInputStreamAdaptor", ptr %13, i32 0, i32 5
  %73 = load i64, ptr %72, align 8, !tbaa !69
  %74 = add nsw i64 %73, %71
  store i64 %74, ptr %72, align 8, !tbaa !69
  %75 = load i32, ptr %12, align 4, !tbaa !9
  %76 = load i32, ptr %5, align 4, !tbaa !9
  %77 = icmp eq i32 %75, %76
  store i1 %77, ptr %3, align 1
  call void @llvm.lifetime.end.p0(i64 4, ptr %12) #3
  br label %78

78:                                               ; preds = %57, %52, %31
  %79 = load i1, ptr %3, align 1
  ret i1 %79

80:                                               ; preds = %46
  %81 = load ptr, ptr %9, align 8
  %82 = load i32, ptr %10, align 4
  %83 = insertvalue { ptr, i32 } poison, ptr %81, 0
  %84 = insertvalue { ptr, i32 } %83, i32 %82, 1
  resume { ptr, i32 } %84
}