; Function Attrs: mustprogress uwtable
define hidden noundef zeroext i1 @_ZN6google8protobuf2io25CopyingInputStreamAdaptor4SkipEi(ptr noundef nonnull align 8 captures(none) dereferenceable(52) %0, i32 noundef %1) unnamed_addr #6 align 2 personality ptr @__gxx_personality_v0 {
  %3 = alloca %"class.google::protobuf::internal::LogMessage", align 8
  %4 = alloca %"class.google::protobuf::internal::LogFinisher", align 1
  %5 = icmp slt i32 %1, 0
  call void @llvm.lifetime.start.p0(i64 1, ptr nonnull %4) #19
  br i1 %5, label %6, label %9

6:                                                ; preds = %2
  call void @llvm.lifetime.start.p0(i64 56, ptr nonnull %3) #19
  call void @_ZN6google8protobuf8internal10LogMessageC1ENS0_8LogLevelEPKci(ptr noundef nonnull align 8 dereferenceable(56) %3, i32 noundef 3, ptr noundef nonnull @.str, i32 noundef 259)
  %7 = invoke noundef nonnull align 8 dereferenceable(56) ptr @_ZN6google8protobuf8internal10LogMessagelsEPKc(ptr noundef nonnull align 8 dereferenceable(56) %3, ptr noundef nonnull @.str.4)
          to label %8 unwind label %14

8:                                                ; preds = %6
  invoke void @_ZN6google8protobuf8internal11LogFinisheraSERNS1_10LogMessageE(ptr noundef nonnull align 1 dereferenceable(1) %4, ptr noundef nonnull align 8 dereferenceable(56) %7)
          to label %10 unwind label %16

9:                                                ; preds = %2
  call void @llvm.lifetime.end.p0(i64 1, ptr nonnull %4) #19
  br label %.critedge24

10:                                               ; preds = %8
  call void @llvm.lifetime.end.p0(i64 1, ptr nonnull %4) #19
  call void @_ZN6google8protobuf8internal10LogMessageD1Ev(ptr noundef nonnull align 8 dereferenceable(56) %3) #19
  call void @llvm.lifetime.end.p0(i64 56, ptr nonnull %3) #19
  br label %.critedge24

.critedge24:                                      ; preds = %9, %10
  %11 = getelementptr inbounds nuw i8, ptr %0, i64 17
  %12 = load i8, ptr %11, align 1, !tbaa !47, !range !51, !noundef !52
  %13 = trunc nuw i8 %12 to i1
  br i1 %13, label %37, label %19

14:                                               ; preds = %6
  %15 = landingpad { ptr, i32 }
          cleanup
  br label %18

16:                                               ; preds = %8
  %17 = landingpad { ptr, i32 }
          cleanup
  call void @llvm.lifetime.end.p0(i64 1, ptr nonnull %4) #19
  br label %18

18:                                               ; preds = %14, %16
  %.pn = phi { ptr, i32 } [ %17, %16 ], [ %15, %14 ]
  call void @_ZN6google8protobuf8internal10LogMessageD1Ev(ptr noundef nonnull align 8 dereferenceable(56) %3) #19
  call void @llvm.lifetime.end.p0(i64 56, ptr nonnull %3) #19
  resume { ptr, i32 } %.pn

19:                                               ; preds = %.critedge24
  %20 = getelementptr inbounds nuw i8, ptr %0, i64 48
  %21 = load i32, ptr %20, align 8, !tbaa !50
  %.not = icmp slt i32 %21, %1
  br i1 %.not, label %24, label %22

22:                                               ; preds = %19
  %23 = sub nsw i32 %21, %1
  store i32 %23, ptr %20, align 8, !tbaa !50
  br label %37

24:                                               ; preds = %19
  %25 = sub nsw i32 %1, %21
  store i32 0, ptr %20, align 8, !tbaa !50
  %26 = getelementptr inbounds nuw i8, ptr %0, i64 8
  %27 = load ptr, ptr %26, align 8, !tbaa !36
  %28 = load ptr, ptr %27, align 8, !tbaa !3
  %29 = getelementptr inbounds nuw i8, ptr %28, i64 24
  %30 = load ptr, ptr %29, align 8
  %31 = call noundef i32 %30(ptr noundef nonnull align 8 dereferenceable(8) %27, i32 noundef %25)
  %32 = sext i32 %31 to i64
  %33 = getelementptr inbounds nuw i8, ptr %0, i64 24
  %34 = load i64, ptr %33, align 8, !tbaa !54
  %35 = add nsw i64 %34, %32
  store i64 %35, ptr %33, align 8, !tbaa !54
  %36 = icmp eq i32 %31, %25
  br label %37

37:                                               ; preds = %.critedge24, %24, %22
  %.0 = phi i1 [ true, %22 ], [ %36, %24 ], [ false, %.critedge24 ]
  ret i1 %.0
}